target datalayout = "e-m:e-p270:32:32-p271:32:32-p272:64:64-i64:64-i128:128-f80:128-n8:16:32:64-S128"
target triple = "x86_64-pc-linux-gnu"

@.str.60 = private unnamed_addr constant [3 x i8] c", \00", align 1
@.str.1813 = private unnamed_addr constant [8 x i8] c"%.15g%s\00", align 1

; Function Attrs: nounwind uwtable
define internal ptr @doubles2str(ptr noundef %0, i32 noundef %1, ptr noundef %2) #1 {
  %4 = alloca ptr, align 8
  %5 = alloca ptr, align 8
  %6 = alloca i32, align 4
  %7 = alloca ptr, align 8
  %8 = alloca i32, align 4
  %9 = alloca ptr, align 8
  %10 = alloca ptr, align 8
  %11 = alloca i64, align 8
  %12 = alloca i32, align 4
  %13 = alloca i32, align 4
  store ptr %0, ptr %5, align 8, !tbaa !174
  store i32 %1, ptr %6, align 4, !tbaa !39
  store ptr %2, ptr %7, align 8, !tbaa !92
  call void @llvm.lifetime.start.p0(i64 4, ptr %8) #13
  call void @llvm.lifetime.start.p0(i64 8, ptr %9) #13
  call void @llvm.lifetime.start.p0(i64 8, ptr %10) #13
  call void @llvm.lifetime.start.p0(i64 8, ptr %11) #13
  %14 = load ptr, ptr %7, align 8, !tbaa !92
  %15 = icmp ne ptr %14, null
  br i1 %15, label %17, label %16

16:                                               ; preds = %3
  store ptr @.str.60, ptr %7, align 8, !tbaa !92
  br label %17

17:                                               ; preds = %16, %3
  %18 = load ptr, ptr %7, align 8, !tbaa !92
  %19 = call i64 @strlen(ptr noundef %18) #16
  %20 = add i64 24, %19
  store i64 %20, ptr %11, align 8, !tbaa !147
  %21 = load i32, ptr %6, align 4, !tbaa !39
  %22 = sext i32 %21 to i64
  %23 = load i64, ptr %11, align 8, !tbaa !147
  %24 = udiv i64 2147483646, %23
  %25 = icmp uge i64 %22, %24
  br i1 %25, label %26, label %27

26:                                               ; preds = %17
  store ptr null, ptr %4, align 8
  store i32 1, ptr %12, align 4
  br label %81

27:                                               ; preds = %17
  %28 = load i64, ptr %11, align 8, !tbaa !147
  %29 = load i32, ptr %6, align 4, !tbaa !39
  %30 = sext i32 %29 to i64
  %31 = mul i64 %28, %30
  %32 = add i64 %31, 1
  %33 = call noalias ptr @av_malloc(i64 noundef %32)
  store ptr %33, ptr %9, align 8, !tbaa !92
  %34 = load ptr, ptr %9, align 8, !tbaa !92
  %35 = icmp ne ptr %34, null
  br i1 %35, label %37, label %36

36:                                               ; preds = %27
  store ptr null, ptr %4, align 8
  store i32 1, ptr %12, align 4
  br label %81

37:                                               ; preds = %27
  %38 = load ptr, ptr %9, align 8, !tbaa !92
  store ptr %38, ptr %10, align 8, !tbaa !92
  %39 = load ptr, ptr %9, align 8, !tbaa !92
  %40 = getelementptr inbounds i8, ptr %39, i64 0
  store i8 0, ptr %40, align 1, !tbaa !126
  store i32 0, ptr %8, align 4, !tbaa !39
  br label %41

41:                                               ; preds = %69, %37
  %42 = load i32, ptr %8, align 4, !tbaa !39
  %43 = load i32, ptr %6, align 4, !tbaa !39
  %44 = icmp slt i32 %42, %43
  br i1 %44, label %45, label %72

45:                                               ; preds = %41
  call void @llvm.lifetime.start.p0(i64 4, ptr %13) #13
  %46 = load ptr, ptr %9, align 8, !tbaa !92
  %47 = load i64, ptr %11, align 8, !tbaa !147
  %48 = load ptr, ptr %5, align 8, !tbaa !174
  %49 = load i32, ptr %8, align 4, !tbaa !39
  %50 = sext i32 %49 to i64
  %51 = getelementptr inbounds double, ptr %48, i64 %50
  %52 = load double, ptr %51, align 8, !tbaa !99
  %53 = load ptr, ptr %7, align 8, !tbaa !92
  %54 = call i32 (ptr, i64, ptr, ...) @snprintf(ptr noundef %46, i64 noundef %47, ptr noundef @.str.1813, double noundef %52, ptr noundef %53) #13
  store i32 %54, ptr %13, align 4, !tbaa !39
  %55 = load i32, ptr %13, align 4, !tbaa !39
  %56 = zext i32 %55 to i64
  %57 = load i64, ptr %11, align 8, !tbaa !147
  %58 = icmp uge i64 %56, %57
  br i1 %58, label %59, label %61

59:                                               ; preds = %45
  %60 = load ptr, ptr %10, align 8, !tbaa !92
  call void @av_free(ptr noundef %60)
  store ptr null, ptr %4, align 8
  store i32 1, ptr %12, align 4
  br label %66

61:                                               ; preds = %45
  %62 = load i32, ptr %13, align 4, !tbaa !39
  %63 = load ptr, ptr %9, align 8, !tbaa !92
  %64 = zext i32 %62 to i64
  %65 = getelementptr inbounds nuw i8, ptr %63, i64 %64
  store ptr %65, ptr %9, align 8, !tbaa !92
  store i32 0, ptr %12, align 4
  br label %66

66:                                               ; preds = %61, %59
  call void @llvm.lifetime.end.p0(i64 4, ptr %13) #13
  %67 = load i32, ptr %12, align 4
  switch i32 %67, label %81 [
    i32 0, label %68
  ]

68:                                               ; preds = %66
  br label %69

69:                                               ; preds = %68
  %70 = load i32, ptr %8, align 4, !tbaa !39
  %71 = add nsw i32 %70, 1
  store i32 %71, ptr %8, align 4, !tbaa !39
  br label %41, !llvm.loop !226

72:                                               ; preds = %41
  %73 = load ptr, ptr %10, align 8, !tbaa !92
  %74 = load ptr, ptr %10, align 8, !tbaa !92
  %75 = call i64 @strlen(ptr noundef %74) #16
  %76 = load ptr, ptr %7, align 8, !tbaa !92
  %77 = call i64 @strlen(ptr noundef %76) #16
  %78 = sub i64 %75, %77
  %79 = getelementptr inbounds nuw i8, ptr %73, i64 %78
  store i8 0, ptr %79, align 1, !tbaa !126
  %80 = load ptr, ptr %10, align 8, !tbaa !92
  store ptr %80, ptr %4, align 8
  store i32 1, ptr %12, align 4
  br label %81

81:                                               ; preds = %72, %66, %36, %26
  call void @llvm.lifetime.end.p0(i64 8, ptr %11) #13
  call void @llvm.lifetime.end.p0(i64 8, ptr %10) #13
  call void @llvm.lifetime.end.p0(i64 8, ptr %9) #13
  call void @llvm.lifetime.end.p0(i64 4, ptr %8) #13
  %82 = load ptr, ptr %4, align 8
  ret ptr %82
}