; Function Attrs: nounwind uwtable
define internal fastcc ptr @doubles2str(ptr noundef readonly captures(none) %0, i32 noundef range(i32 1, 0) %1) unnamed_addr #1 {
  %3 = icmp ugt i32 %1, 82595523
  br i1 %3, label %19, label %4

4:                                                ; preds = %2
  %narrow = mul nuw nsw i32 %1, 26
  %5 = or disjoint i32 %narrow, 1
  %6 = zext nneg i32 %5 to i64
  %7 = tail call noalias ptr @av_malloc(i64 noundef %6) #16
  %.not = icmp eq ptr %7, null
  br i1 %.not, label %19, label %.lr.ph.preheader

.lr.ph.preheader:                                 ; preds = %4
  store i8 0, ptr %7, align 1, !tbaa !81
  %wide.trip.count = zext nneg i32 %1 to i64
  br label %.lr.ph

.lr.ph:                                           ; preds = %.lr.ph.preheader, %13
  %indvars.iv = phi i64 [ 0, %.lr.ph.preheader ], [ %indvars.iv.next, %13 ]
  %.0293 = phi ptr [ %7, %.lr.ph.preheader ], [ %15, %13 ]
  %8 = getelementptr inbounds nuw double, ptr %0, i64 %indvars.iv
  %9 = load double, ptr %8, align 8, !tbaa !115
  %10 = tail call i32 (ptr, i64, ptr, ...) @snprintf(ptr noundef nonnull dereferenceable(1) %.0293, i64 noundef 26, ptr noundef nonnull @.str.1813, double noundef %9, ptr noundef nonnull @.str.60) #16
  %11 = icmp ult i32 %10, 26
  br i1 %11, label %13, label %12

12:                                               ; preds = %.lr.ph
  tail call void @av_free(ptr noundef nonnull %7) #16
  br label %19

13:                                               ; preds = %.lr.ph
  %14 = zext nneg i32 %10 to i64
  %15 = getelementptr inbounds nuw i8, ptr %.0293, i64 %14
  %indvars.iv.next = add nuw nsw i64 %indvars.iv, 1
  %exitcond.not = icmp eq i64 %indvars.iv.next, %wide.trip.count
  br i1 %exitcond.not, label %._crit_edge, label %.lr.ph, !llvm.loop !238

._crit_edge:                                      ; preds = %13
  %16 = tail call i64 @strlen(ptr noundef nonnull dereferenceable(1) %7) #18
  %17 = getelementptr i8, ptr %7, i64 %16
  %18 = getelementptr i8, ptr %17, i64 -2
  store i8 0, ptr %18, align 1, !tbaa !81
  br label %19

19:                                               ; preds = %12, %4, %2, %._crit_edge
  %.0 = phi ptr [ null, %12 ], [ %7, %._crit_edge ], [ null, %2 ], [ null, %4 ]
  ret ptr %.0
}